target datalayout = "e-m:e-p270:32:32-p271:32:32-p272:64:64-i64:64-i128:128-f80:128-n8:16:32:64-S128"
target triple = "x86_64-pc-linux-gnu"

%struct._packet_info = type { ptr, ptr, i32, i32, %struct.nstime_t, %struct.nstime_t, %struct.nstime_t, i8, ptr, ptr, ptr, ptr, %struct._address, %struct._address, %struct._address, %struct._address, %struct._address, %struct._address, i32, ptr, i8, [3 x i8], %struct.anon, i32, i32, i32, i32, ptr, i8, ptr, ptr, i16, i16, i32, i32, i16, i32, i32, ptr, ptr, ptr, i8, i8, i16, i16, i16, i32, i16, i16, ptr, ptr, ptr, ptr, ptr, i32, i32 }
%struct.nstime_t = type { i64, i32 }
%struct._address = type { i32, i32, ptr, ptr }
%struct.anon = type { i8, [3 x i8] }
%struct.fp_info = type { i32, i32, i8, i16, i8, i8, i32, i8, i32, [64 x i32], [64 x i32], i32, [16 x i8], [16 x i32], [16 x i32], i8, i32, i32, i32, i16, i16, i32, ptr, ptr, i32, i32, [8 x i8], i32, i32, i32, i8 }
%struct.rlc_info = type { [64 x i32], [64 x i8], [64 x i8], [64 x i32], [64 x i8], [64 x i8] }
%struct._proto_node = type { ptr, ptr, ptr, ptr, ptr, ptr, ptr }
%struct.field_info = type { ptr, i32, i32, i32, i32, i32, i32, ptr, ptr, ptr, i32, i32 }

@hf_rlc_channel = internal global i32 0, align 4
@hf_rlc_channel_rbid = internal global i32 0, align 4
@hf_rlc_channel_dir = internal global i32 0, align 4
@hf_rlc_channel_ueid = internal global i32 0, align 4
@ett_rlc_channel = internal global i32 0, align 4
@rlc_dir_vals = internal constant [3 x { i32, [4 x i8], ptr }] [{ i32, [4 x i8], ptr } { i32 0, [4 x i8] zeroinitializer, ptr @.str.185 }, { i32, [4 x i8], ptr } { i32 1, [4 x i8] zeroinitializer, ptr @.str.186 }, { i32, [4 x i8], ptr } zeroinitializer], align 16
@.str.189 = private unnamed_addr constant [34 x i8] c" (rbid: %u, dir: %s, uid: 0x%08x)\00", align 1
@.str.190 = private unnamed_addr constant [8 x i8] c"Unknown\00", align 1

; Function Attrs: inlinehint nounwind null_pointer_is_valid sspstrong uwtable
define internal void @proto_item_set_generated(ptr noundef %0) #8 {
  %2 = alloca ptr, align 8
  store ptr %0, ptr %2, align 8
  %3 = load ptr, ptr %2, align 8
  %4 = icmp ne ptr %3, null
  br i1 %4, label %5, label %24

5:                                                ; preds = %1
  br label %6

6:                                                ; preds = %5
  %7 = load ptr, ptr %2, align 8
  %8 = getelementptr inbounds nuw %struct._proto_node, ptr %7, i32 0, i32 5
  %9 = load ptr, ptr %8, align 8
  %10 = icmp ne ptr %9, null
  br i1 %10, label %11, label %22

11:                                               ; preds = %6
  %12 = load ptr, ptr %2, align 8
  %13 = getelementptr inbounds nuw %struct._proto_node, ptr %12, i32 0, i32 5
  %14 = load ptr, ptr %13, align 8
  %15 = getelementptr inbounds nuw %struct.field_info, ptr %14, i32 0, i32 6
  %16 = load i32, ptr %15, align 4
  %17 = or i32 %16, 2
  %18 = load ptr, ptr %2, align 8
  %19 = getelementptr inbounds nuw %struct._proto_node, ptr %18, i32 0, i32 5
  %20 = load ptr, ptr %19, align 8
  %21 = getelementptr inbounds nuw %struct.field_info, ptr %20, i32 0, i32 6
  store i32 %17, ptr %21, align 4
  br label %22

22:                                               ; preds = %11, %6
  br label %23

23:                                               ; preds = %22
  br label %24

24:                                               ; preds = %23, %1
  ret void
}

; Function Attrs: null_pointer_is_valid sspstrong uwtable
define internal void @add_channel_info(ptr noundef %0, ptr noundef %1, ptr noundef %2, ptr noundef %3) #0 {
  %5 = alloca ptr, align 8
  %6 = alloca ptr, align 8
  %7 = alloca ptr, align 8
  %8 = alloca ptr, align 8
  %9 = alloca ptr, align 8
  %10 = alloca ptr, align 8
  store ptr %0, ptr %5, align 8
  store ptr %1, ptr %6, align 8
  store ptr %2, ptr %7, align 8
  store ptr %3, ptr %8, align 8
  call void @llvm.lifetime.start.p0(i64 8, ptr %9) #18
  call void @llvm.lifetime.start.p0(i64 8, ptr %10) #18
  %11 = load ptr, ptr %6, align 8
  %12 = load i32, ptr @hf_rlc_channel, align 4
  %13 = call ptr @proto_tree_add_item(ptr noundef %11, i32 noundef %12, ptr noundef null, i32 noundef 0, i32 noundef 0, i32 noundef 0)
  store ptr %13, ptr %9, align 8
  %14 = load ptr, ptr %9, align 8
  %15 = load i32, ptr @ett_rlc_channel, align 4
  %16 = call ptr @proto_item_add_subtree(ptr noundef %14, i32 noundef %15)
  store ptr %16, ptr %10, align 8
  %17 = load ptr, ptr %9, align 8
  %18 = load ptr, ptr %8, align 8
  %19 = getelementptr inbounds nuw %struct.rlc_info, ptr %18, i32 0, i32 2
  %20 = load ptr, ptr %7, align 8
  %21 = getelementptr inbounds nuw %struct.fp_info, ptr %20, i32 0, i32 16
  %22 = load i32, ptr %21, align 4
  %23 = sext i32 %22 to i64
  %24 = getelementptr [64 x i8], ptr %19, i64 0, i64 %23
  %25 = load i8, ptr %24, align 1
  %26 = zext i8 %25 to i32
  %27 = load ptr, ptr %5, align 8
  %28 = getelementptr inbounds nuw %struct._packet_info, ptr %27, i32 0, i32 46
  %29 = load i32, ptr %28, align 8
  %30 = call ptr @val_to_str_const(i32 noundef %29, ptr noundef @rlc_dir_vals, ptr noundef @.str.190)
  %31 = load ptr, ptr %8, align 8
  %32 = getelementptr inbounds nuw %struct.rlc_info, ptr %31, i32 0, i32 0
  %33 = load ptr, ptr %7, align 8
  %34 = getelementptr inbounds nuw %struct.fp_info, ptr %33, i32 0, i32 16
  %35 = load i32, ptr %34, align 4
  %36 = sext i32 %35 to i64
  %37 = getelementptr [64 x i32], ptr %32, i64 0, i64 %36
  %38 = load i32, ptr %37, align 4
  call void (ptr, ptr, ...) @proto_item_append_text(ptr noundef %17, ptr noundef @.str.189, i32 noundef %26, ptr noundef %30, i32 noundef %38)
  %39 = load ptr, ptr %9, align 8
  call void @proto_item_set_generated(ptr noundef %39)
  %40 = load ptr, ptr %10, align 8
  %41 = load i32, ptr @hf_rlc_channel_rbid, align 4
  %42 = load ptr, ptr %8, align 8
  %43 = getelementptr inbounds nuw %struct.rlc_info, ptr %42, i32 0, i32 2
  %44 = load ptr, ptr %7, align 8
  %45 = getelementptr inbounds nuw %struct.fp_info, ptr %44, i32 0, i32 16
  %46 = load i32, ptr %45, align 4
  %47 = sext i32 %46 to i64
  %48 = getelementptr [64 x i8], ptr %43, i64 0, i64 %47
  %49 = load i8, ptr %48, align 1
  %50 = zext i8 %49 to i32
  %51 = call ptr @proto_tree_add_uint(ptr noundef %40, i32 noundef %41, ptr noundef null, i32 noundef 0, i32 noundef 0, i32 noundef %50)
  store ptr %51, ptr %9, align 8
  %52 = load ptr, ptr %9, align 8
  call void @proto_item_set_generated(ptr noundef %52)
  %53 = load ptr, ptr %10, align 8
  %54 = load i32, ptr @hf_rlc_channel_dir, align 4
  %55 = load ptr, ptr %5, align 8
  %56 = getelementptr inbounds nuw %struct._packet_info, ptr %55, i32 0, i32 46
  %57 = load i32, ptr %56, align 8
  %58 = call ptr @proto_tree_add_uint(ptr noundef %53, i32 noundef %54, ptr noundef null, i32 noundef 0, i32 noundef 0, i32 noundef %57)
  store ptr %58, ptr %9, align 8
  %59 = load ptr, ptr %9, align 8
  call void @proto_item_set_generated(ptr noundef %59)
  %60 = load ptr, ptr %10, align 8
  %61 = load i32, ptr @hf_rlc_channel_ueid, align 4
  %62 = load ptr, ptr %8, align 8
  %63 = getelementptr inbounds nuw %struct.rlc_info, ptr %62, i32 0, i32 0
  %64 = load ptr, ptr %7, align 8
  %65 = getelementptr inbounds nuw %struct.fp_info, ptr %64, i32 0, i32 16
  %66 = load i32, ptr %65, align 4
  %67 = sext i32 %66 to i64
  %68 = getelementptr [64 x i32], ptr %63, i64 0, i64 %67
  %69 = load i32, ptr %68, align 4
  %70 = call ptr @proto_tree_add_uint(ptr noundef %60, i32 noundef %61, ptr noundef null, i32 noundef 0, i32 noundef 0, i32 noundef %69)
  store ptr %70, ptr %9, align 8
  %71 = load ptr, ptr %9, align 8
  call void @proto_item_set_generated(ptr noundef %71)
  call void @llvm.lifetime.end.p0(i64 8, ptr %10) #18
  call void @llvm.lifetime.end.p0(i64 8, ptr %9) #18
  ret void
}