; Function Attrs: null_pointer_is_valid sspstrong uwtable
define internal fastcc void @add_channel_info(ptr noundef readonly captures(none) %0, ptr noundef nonnull %1, ptr noundef nonnull readonly captures(none) %2, ptr noundef nonnull readonly captures(none) %3) unnamed_addr #0 {
  %5 = load i32, ptr @hf_rlc_channel, align 4
  %6 = tail call ptr @proto_tree_add_item(ptr noundef nonnull %1, i32 noundef %5, ptr noundef null, i32 noundef 0, i32 noundef 0, i32 noundef 0)
  %7 = load i32, ptr @ett_rlc_channel, align 4
  %8 = tail call ptr @proto_item_add_subtree(ptr noundef %6, i32 noundef %7)
  %9 = getelementptr inbounds nuw i8, ptr %3, i64 320
  %10 = getelementptr inbounds nuw i8, ptr %2, i64 692
  %11 = load i32, ptr %10, align 4
  %12 = sext i32 %11 to i64
  %13 = getelementptr [64 x i8], ptr %9, i64 0, i64 %12
  %14 = load i8, ptr %13, align 1
  %15 = zext i8 %14 to i32
  %16 = getelementptr inbounds nuw i8, ptr %0, i64 384
  %17 = load i32, ptr %16, align 8
  %18 = tail call ptr @val_to_str_const(i32 noundef %17, ptr noundef nonnull @rlc_dir_vals, ptr noundef nonnull @.str.190)
  %19 = load i32, ptr %10, align 4
  %20 = sext i32 %19 to i64
  %21 = getelementptr [64 x i32], ptr %3, i64 0, i64 %20
  %22 = load i32, ptr %21, align 4
  tail call void (ptr, ptr, ...) @proto_item_append_text(ptr noundef %6, ptr noundef nonnull @.str.189, i32 noundef %15, ptr noundef %18, i32 noundef %22)
  %.not.i = icmp eq ptr %6, null
  br i1 %.not.i, label %proto_item_set_generated.exit, label %23

23:                                               ; preds = %4
  %24 = getelementptr inbounds nuw i8, ptr %6, i64 40
  %25 = load ptr, ptr %24, align 8
  %.not5.i = icmp eq ptr %25, null
  br i1 %.not5.i, label %proto_item_set_generated.exit, label %26

26:                                               ; preds = %23
  %27 = getelementptr inbounds nuw i8, ptr %25, i64 28
  %28 = load i32, ptr %27, align 4
  %29 = or i32 %28, 2
  store i32 %29, ptr %27, align 4
  br label %proto_item_set_generated.exit

proto_item_set_generated.exit:                    ; preds = %4, %23, %26
  %30 = load i32, ptr @hf_rlc_channel_rbid, align 4
  %31 = load i32, ptr %10, align 4
  %32 = sext i32 %31 to i64
  %33 = getelementptr [64 x i8], ptr %9, i64 0, i64 %32
  %34 = load i8, ptr %33, align 1
  %35 = zext i8 %34 to i32
  %36 = tail call ptr @proto_tree_add_uint(ptr noundef %8, i32 noundef %30, ptr noundef null, i32 noundef 0, i32 noundef 0, i32 noundef %35)
  %.not.i20 = icmp eq ptr %36, null
  br i1 %.not.i20, label %proto_item_set_generated.exit22, label %37

37:                                               ; preds = %proto_item_set_generated.exit
  %38 = getelementptr inbounds nuw i8, ptr %36, i64 40
  %39 = load ptr, ptr %38, align 8
  %.not5.i21 = icmp eq ptr %39, null
  br i1 %.not5.i21, label %proto_item_set_generated.exit22, label %40

40:                                               ; preds = %37
  %41 = getelementptr inbounds nuw i8, ptr %39, i64 28
  %42 = load i32, ptr %41, align 4
  %43 = or i32 %42, 2
  store i32 %43, ptr %41, align 4
  br label %proto_item_set_generated.exit22

proto_item_set_generated.exit22:                  ; preds = %proto_item_set_generated.exit, %37, %40
  %44 = load i32, ptr @hf_rlc_channel_dir, align 4
  %45 = load i32, ptr %16, align 8
  %46 = tail call ptr @proto_tree_add_uint(ptr noundef %8, i32 noundef %44, ptr noundef null, i32 noundef 0, i32 noundef 0, i32 noundef %45)
  %.not.i23 = icmp eq ptr %46, null
  br i1 %.not.i23, label %proto_item_set_generated.exit25, label %47

47:                                               ; preds = %proto_item_set_generated.exit22
  %48 = getelementptr inbounds nuw i8, ptr %46, i64 40
  %49 = load ptr, ptr %48, align 8
  %.not5.i24 = icmp eq ptr %49, null
  br i1 %.not5.i24, label %proto_item_set_generated.exit25, label %50

50:                                               ; preds = %47
  %51 = getelementptr inbounds nuw i8, ptr %49, i64 28
  %52 = load i32, ptr %51, align 4
  %53 = or i32 %52, 2
  store i32 %53, ptr %51, align 4
  br label %proto_item_set_generated.exit25

proto_item_set_generated.exit25:                  ; preds = %proto_item_set_generated.exit22, %47, %50
  %54 = load i32, ptr @hf_rlc_channel_ueid, align 4
  %55 = load i32, ptr %10, align 4
  %56 = sext i32 %55 to i64
  %57 = getelementptr [64 x i32], ptr %3, i64 0, i64 %56
  %58 = load i32, ptr %57, align 4
  %59 = tail call ptr @proto_tree_add_uint(ptr noundef %8, i32 noundef %54, ptr noundef null, i32 noundef 0, i32 noundef 0, i32 noundef %58)
  %.not.i26 = icmp eq ptr %59, null
  br i1 %.not.i26, label %proto_item_set_generated.exit28, label %60

60:                                               ; preds = %proto_item_set_generated.exit25
  %61 = getelementptr inbounds nuw i8, ptr %59, i64 40
  %62 = load ptr, ptr %61, align 8
  %.not5.i27 = icmp eq ptr %62, null
  br i1 %.not5.i27, label %proto_item_set_generated.exit28, label %63

63:                                               ; preds = %60
  %64 = getelementptr inbounds nuw i8, ptr %62, i64 28
  %65 = load i32, ptr %64, align 4
  %66 = or i32 %65, 2
  store i32 %66, ptr %64, align 4
  br label %proto_item_set_generated.exit28

proto_item_set_generated.exit28:                  ; preds = %proto_item_set_generated.exit25, %60, %63
  ret void
}